target datalayout = "e-m:e-p270:32:32-p271:32:32-p272:64:64-i64:64-i128:128-f80:128-n8:16:32:64-S128"
target triple = "x86_64-pc-linux-gnu"

%struct.assoc_mgr_lock_t = type { i32, i32, i32, i32, i32, i32, i32 }
%struct.slurm_conf_t = type { i64, ptr, i16, ptr, ptr, ptr, ptr, ptr, i16, ptr, ptr, ptr, ptr, ptr, ptr, ptr, i16, ptr, ptr, ptr, ptr, i16, ptr, ptr, ptr, i64, ptr, ptr, ptr, ptr, i16, ptr, ptr, i16, i32, ptr, i32, ptr, i32, i32, ptr, ptr, i64, i64, ptr, i16, i16, ptr, i32, i32, ptr, i32, ptr, i32, i16, i16, i16, ptr, i16, i16, ptr, ptr, i32, i16, i16, ptr, i32, i16, ptr, ptr, ptr, ptr, i16, ptr, ptr, ptr, ptr, i32, ptr, ptr, ptr, ptr, i16, i16, ptr, i32, i32, i32, i16, i16, ptr, ptr, i16, ptr, ptr, i32, i32, i32, i32, i32, i64, i32, i32, i16, ptr, ptr, i32, ptr, ptr, ptr, i16, i32, ptr, ptr, i16, ptr, ptr, i32, i16, ptr, ptr, ptr, ptr, i32, i32, i16, i16, i32, ptr, i16, ptr, i32, i32, i32, i32, i32, i32, ptr, i16, ptr, ptr, i32, i16, ptr, i32, i16, i16, ptr, ptr, ptr, i16, ptr, ptr, ptr, ptr, i16, i16, ptr, i16, ptr, i16, ptr, i16, ptr, i16, ptr, ptr, ptr, ptr, i16, ptr, ptr, ptr, i32, ptr, i32, ptr, ptr, i16, ptr, ptr, i32, i16, ptr, ptr, i16, i16, ptr, i16, ptr, ptr, ptr, i32, ptr, i16, i16, ptr, ptr, ptr, ptr, ptr, ptr, ptr, ptr, i16, i32, i16, ptr, ptr, ptr, ptr, i32, ptr, ptr, ptr, i16, ptr, ptr, ptr, i16, ptr, i16, ptr, i16, i16, ptr }
%struct.job_record = type { i32, ptr, ptr, ptr, ptr, i16, i32, i32, i32, ptr, i32, ptr, ptr, i16, ptr, double, i64, ptr, ptr, ptr, ptr, ptr, ptr, i32, ptr, i32, i64, i64, i32, i32, ptr, i16, i64, i64, i8, i32, ptr, ptr, ptr, ptr, ptr, ptr, ptr, ptr, i32, ptr, ptr, i32, ptr, i32, ptr, i32, ptr, i32, ptr, ptr, ptr, ptr, ptr, ptr, i32, i16, i64, ptr, ptr, ptr, ptr, %struct.acct_policy_limit_set_t, i16, ptr, ptr, ptr, ptr, ptr, i32, ptr, ptr, ptr, ptr, ptr, i32, i32, ptr, ptr, ptr, i16, ptr, ptr, i8, ptr, ptr, i64, i64, i8, i32, i32, i8, i32, ptr, i32, i64, i32, ptr, ptr, ptr, i8, i16, i64, i32, ptr, ptr, ptr, ptr, ptr, i16, i32, ptr, ptr, ptr, ptr, i32, ptr, i32, i16, i64, ptr, i32, i32, ptr, i64, ptr, ptr, i64, i32, i32, i64, i32, i32, ptr, ptr, ptr, ptr, ptr, ptr, ptr, ptr, ptr, ptr, ptr, ptr, i32, ptr, i16, i16, i16, i16, ptr, i32, i32, i8, i64 }
%struct.acct_policy_limit_set_t = type { i16, i16, ptr }
%struct.slurmdb_assoc_rec = type { ptr, ptr, ptr, ptr, ptr, ptr, ptr, i32, i32, i32, i32, i32, ptr, ptr, ptr, ptr, ptr, ptr, i32, i32, i16, ptr, ptr, i32, i32, i32, ptr, ptr, ptr, ptr, ptr, ptr, ptr, ptr, i32, i32, ptr, i32, ptr, i32, ptr, i32, i32, ptr, ptr, ptr }
%struct.job_details_t = type { i32, ptr, i64, ptr, i32, ptr, i64, ptr, i16, i16, ptr, i16, i32, i32, i32, i16, ptr, i16, ptr, ptr, ptr, i16, ptr, ptr, ptr, ptr, i32, ptr, ptr, ptr, ptr, ptr, i32, i32, i32, ptr, ptr, i16, i32, i32, i32, i32, i32, i32, i16, i16, i32, i8, i8, i32, i32, i64, i64, i16, i32, ptr, ptr, i8, ptr, i32, ptr, i64, ptr, ptr, i16, i16, i16, i8, ptr, ptr, ptr, ptr, ptr, ptr, i64, i32, i32, i8, ptr, i16, ptr, ptr, i16 }
%struct.acct_policy_accrue_t = type { ptr, ptr, i32, ptr, i8, i64, ptr, i32, ptr, ptr }

@accounting_enforce = external global i16, align 2
@slurm_conf = external global %struct.slurm_conf_t, align 8
@.str.28 = private unnamed_addr constant [162 x i8] c"%s: no assoc_ptr, this usually means the association was removed right after the job (%pJ) was started, but didn't make it to the database before it was removed.\00", align 1
@__const.acct_policy_add_accrue_time.locks = private unnamed_addr constant %struct.assoc_mgr_lock_t { i32 2, i32 0, i32 2, i32 0, i32 0, i32 0, i32 0 }, align 4
@__func__.acct_policy_add_accrue_time = private unnamed_addr constant [28 x i8] c"acct_policy_add_accrue_time\00", align 1

; Function Attrs: nounwind uwtable
define dso_local void @acct_policy_add_accrue_time(ptr noundef %0, i1 noundef zeroext %1) #0 {
  %3 = alloca ptr, align 8
  %4 = alloca i8, align 1
  %5 = alloca ptr, align 8
  %6 = alloca %struct.assoc_mgr_lock_t, align 4
  %7 = alloca ptr, align 8
  %8 = alloca i64, align 8
  %9 = alloca %struct.acct_policy_accrue_t, align 8
  %10 = alloca i32, align 4
  store ptr %0, ptr %3, align 8
  %11 = zext i1 %1 to i8
  store i8 %11, ptr %4, align 1
  call void @llvm.lifetime.start.p0(i64 8, ptr %5) #8
  call void @llvm.lifetime.start.p0(i64 28, ptr %6) #8
  call void @llvm.memcpy.p0.p0.i64(ptr align 4 %6, ptr align 4 @__const.acct_policy_add_accrue_time.locks, i64 28, i1 false)
  call void @llvm.lifetime.start.p0(i64 8, ptr %7) #8
  %12 = load ptr, ptr %3, align 8
  %13 = getelementptr inbounds nuw %struct.job_record, ptr %12, i32 0, i32 30
  %14 = load ptr, ptr %13, align 8
  store ptr %14, ptr %7, align 8
  call void @llvm.lifetime.start.p0(i64 8, ptr %8) #8
  %15 = call i64 @time(ptr noundef null) #8
  store i64 %15, ptr %8, align 8
  call void @llvm.lifetime.start.p0(i64 80, ptr %9) #8
  %16 = getelementptr inbounds nuw %struct.acct_policy_accrue_t, ptr %9, i32 0, i32 0
  store ptr null, ptr %16, align 8
  %17 = getelementptr inbounds nuw %struct.acct_policy_accrue_t, ptr %9, i32 0, i32 1
  %18 = load ptr, ptr %3, align 8
  %19 = getelementptr inbounds nuw %struct.job_record, ptr %18, i32 0, i32 11
  %20 = load ptr, ptr %19, align 8
  store ptr %20, ptr %17, align 8
  %21 = getelementptr inbounds nuw %struct.acct_policy_accrue_t, ptr %9, i32 0, i32 2
  store i32 0, ptr %21, align 8
  %22 = getelementptr i8, ptr %9, i64 20
  call void @llvm.memset.p0.i64(ptr align 4 %22, i8 0, i64 4, i1 false)
  %23 = getelementptr inbounds nuw %struct.acct_policy_accrue_t, ptr %9, i32 0, i32 3
  %24 = load ptr, ptr %3, align 8
  store ptr %24, ptr %23, align 8
  %25 = getelementptr inbounds nuw %struct.acct_policy_accrue_t, ptr %9, i32 0, i32 4
  store i8 0, ptr %25, align 8
  %26 = getelementptr i8, ptr %9, i64 33
  call void @llvm.memset.p0.i64(ptr align 1 %26, i8 0, i64 7, i1 false)
  %27 = getelementptr inbounds nuw %struct.acct_policy_accrue_t, ptr %9, i32 0, i32 5
  %28 = load i64, ptr %8, align 8
  store i64 %28, ptr %27, align 8
  %29 = getelementptr inbounds nuw %struct.acct_policy_accrue_t, ptr %9, i32 0, i32 6
  store ptr null, ptr %29, align 8
  %30 = getelementptr inbounds nuw %struct.acct_policy_accrue_t, ptr %9, i32 0, i32 7
  %31 = load ptr, ptr %3, align 8
  %32 = getelementptr inbounds nuw %struct.job_record, ptr %31, i32 0, i32 150
  %33 = load i32, ptr %32, align 8
  store i32 %33, ptr %30, align 8
  %34 = getelementptr i8, ptr %9, i64 60
  call void @llvm.memset.p0.i64(ptr align 4 %34, i8 0, i64 4, i1 false)
  %35 = getelementptr inbounds nuw %struct.acct_policy_accrue_t, ptr %9, i32 0, i32 8
  store ptr null, ptr %35, align 8
  %36 = getelementptr inbounds nuw %struct.acct_policy_accrue_t, ptr %9, i32 0, i32 9
  store ptr null, ptr %36, align 8
  %37 = load i16, ptr getelementptr inbounds nuw (%struct.slurm_conf_t, ptr @slurm_conf, i32 0, i32 126), align 2
  %38 = zext i16 %37 to i64
  %39 = and i64 %38, 1
  %40 = icmp ne i64 %39, 0
  br i1 %40, label %41, label %42

41:                                               ; preds = %2
  store i32 1, ptr %10, align 4
  br label %122

42:                                               ; preds = %2
  %43 = load i16, ptr @accounting_enforce, align 2
  %44 = zext i16 %43 to i64
  %45 = and i64 %44, 2
  %46 = icmp ne i64 %45, 0
  br i1 %46, label %48, label %47

47:                                               ; preds = %42
  store i32 1, ptr %10, align 4
  br label %122

48:                                               ; preds = %42
  %49 = load ptr, ptr %3, align 8
  %50 = getelementptr inbounds nuw %struct.job_record, ptr %49, i32 0, i32 97
  %51 = load i32, ptr %50, align 8
  %52 = icmp ne i32 %51, 0
  br i1 %52, label %53, label %73

53:                                               ; preds = %48
  %54 = load ptr, ptr %3, align 8
  %55 = getelementptr inbounds nuw %struct.job_record, ptr %54, i32 0, i32 16
  %56 = load i64, ptr %55, align 8
  %57 = and i64 %56, 536870912
  %58 = icmp ne i64 %57, 0
  br i1 %58, label %73, label %59

59:                                               ; preds = %53
  %60 = load ptr, ptr %7, align 8
  %61 = icmp ne ptr %60, null
  br i1 %61, label %62, label %80

62:                                               ; preds = %59
  %63 = load ptr, ptr %7, align 8
  %64 = getelementptr inbounds nuw %struct.job_details_t, ptr %63, i32 0, i32 6
  %65 = load i64, ptr %64, align 8
  %66 = icmp ne i64 %65, 0
  br i1 %66, label %67, label %80

67:                                               ; preds = %62
  %68 = load ptr, ptr %7, align 8
  %69 = getelementptr inbounds nuw %struct.job_details_t, ptr %68, i32 0, i32 6
  %70 = load i64, ptr %69, align 8
  %71 = load i64, ptr %8, align 8
  %72 = icmp sgt i64 %70, %71
  br i1 %72, label %73, label %80

73:                                               ; preds = %67, %53, %48
  %74 = load ptr, ptr %7, align 8
  %75 = icmp ne ptr %74, null
  br i1 %75, label %76, label %79

76:                                               ; preds = %73
  %77 = load ptr, ptr %7, align 8
  %78 = getelementptr inbounds nuw %struct.job_details_t, ptr %77, i32 0, i32 2
  store i64 0, ptr %78, align 8
  br label %79

79:                                               ; preds = %76, %73
  store i32 1, ptr %10, align 4
  br label %122

80:                                               ; preds = %67, %62, %59
  %81 = load ptr, ptr %3, align 8
  %82 = getelementptr inbounds nuw %struct.job_record, ptr %81, i32 0, i32 60
  %83 = load i32, ptr %82, align 8
  %84 = and i32 %83, 255
  %85 = icmp eq i32 %84, 0
  br i1 %85, label %87, label %86

86:                                               ; preds = %80
  store i32 1, ptr %10, align 4
  br label %122

87:                                               ; preds = %80
  %88 = load i8, ptr %4, align 1, !range !8, !noundef !9
  %89 = trunc i8 %88 to i1
  br i1 %89, label %91, label %90

90:                                               ; preds = %87
  call void @assoc_mgr_lock(ptr noundef %6)
  br label %91

91:                                               ; preds = %90, %87
  %92 = load ptr, ptr %3, align 8
  %93 = getelementptr inbounds nuw %struct.job_record, ptr %92, i32 0, i32 11
  %94 = load ptr, ptr %93, align 8
  store ptr %94, ptr %5, align 8
  %95 = load ptr, ptr %5, align 8
  %96 = icmp ne ptr %95, null
  br i1 %96, label %109, label %97

97:                                               ; preds = %91
  br label %98

98:                                               ; preds = %97
  br label %99

99:                                               ; preds = %98
  %100 = call i32 @get_log_level()
  %101 = icmp sge i32 %100, 5
  br i1 %101, label %102, label %104

102:                                              ; preds = %99
  %103 = load ptr, ptr %3, align 8
  call void (i32, ptr, ...) @log_var(i32 noundef 5, ptr noundef @.str.28, ptr noundef @__func__.acct_policy_add_accrue_time, ptr noundef %103)
  br label %104

104:                                              ; preds = %102, %99
  br label %105

105:                                              ; preds = %104
  br label %106

106:                                              ; preds = %105
  br label %107

107:                                              ; preds = %106
  br label %108

108:                                              ; preds = %107
  br label %117

109:                                              ; preds = %91
  %110 = load ptr, ptr %3, align 8
  %111 = getelementptr inbounds nuw %struct.job_record, ptr %110, i32 0, i32 11
  %112 = load ptr, ptr %111, align 8
  %113 = getelementptr inbounds nuw %struct.slurmdb_assoc_rec, ptr %112, i32 0, i32 1
  %114 = load ptr, ptr %113, align 8
  %115 = getelementptr inbounds nuw %struct.acct_policy_accrue_t, ptr %9, i32 0, i32 0
  store ptr %114, ptr %115, align 8
  %116 = load ptr, ptr %3, align 8
  call void @_set_highest_prio_qos_ptr(ptr noundef %116)
  call void @_handle_add_accrue(ptr noundef %9)
  br label %117

117:                                              ; preds = %109, %108
  %118 = load i8, ptr %4, align 1, !range !8, !noundef !9
  %119 = trunc i8 %118 to i1
  br i1 %119, label %121, label %120

120:                                              ; preds = %117
  call void @assoc_mgr_unlock(ptr noundef %6)
  br label %121

121:                                              ; preds = %120, %117
  store i32 0, ptr %10, align 4
  br label %122

122:                                              ; preds = %121, %86, %79, %47, %41
  call void @llvm.lifetime.end.p0(i64 80, ptr %9) #8
  call void @llvm.lifetime.end.p0(i64 8, ptr %8) #8
  call void @llvm.lifetime.end.p0(i64 8, ptr %7) #8
  call void @llvm.lifetime.end.p0(i64 28, ptr %6) #8
  call void @llvm.lifetime.end.p0(i64 8, ptr %5) #8
  %123 = load i32, ptr %10, align 4
  switch i32 %123, label %125 [
    i32 0, label %124
    i32 1, label %124
  ]

124:                                              ; preds = %122, %122
  ret void

125:                                              ; preds = %122
  unreachable
}