; Function Attrs: nounwind uwtable
define dso_local void @acct_policy_add_accrue_time(ptr noundef %0, i1 noundef zeroext %1) local_unnamed_addr #0 {
  %3 = alloca %struct.assoc_mgr_lock_t, align 4
  %4 = alloca %struct.acct_policy_accrue_t, align 8
  call void @llvm.lifetime.start.p0(i64 28, ptr nonnull %3) #15
  call void @llvm.memcpy.p0.p0.i64(ptr noundef nonnull align 4 dereferenceable(28) %3, ptr noundef nonnull align 4 dereferenceable(28) @__const.acct_policy_remove_accrue_time.locks, i64 28, i1 false)
  %5 = getelementptr inbounds nuw i8, ptr %0, i64 216
  %6 = load ptr, ptr %5, align 8
  %7 = tail call i64 @time(ptr noundef null) #15
  call void @llvm.lifetime.start.p0(i64 80, ptr nonnull %4) #15
  %8 = getelementptr inbounds nuw i8, ptr %4, i64 8
  %9 = getelementptr inbounds nuw i8, ptr %0, i64 72
  %10 = load ptr, ptr %9, align 8
  store ptr %10, ptr %8, align 8
  %11 = getelementptr inbounds nuw i8, ptr %4, i64 16
  store i32 0, ptr %11, align 8
  %12 = getelementptr inbounds nuw i8, ptr %4, i64 20
  store i32 0, ptr %12, align 4
  %13 = getelementptr inbounds nuw i8, ptr %4, i64 24
  store ptr %0, ptr %13, align 8
  %14 = getelementptr inbounds nuw i8, ptr %4, i64 32
  %15 = getelementptr inbounds nuw i8, ptr %4, i64 40
  store i64 0, ptr %14, align 8
  store i64 %7, ptr %15, align 8
  %16 = getelementptr inbounds nuw i8, ptr %4, i64 48
  store ptr null, ptr %16, align 8
  %17 = getelementptr inbounds nuw i8, ptr %4, i64 56
  %18 = getelementptr inbounds nuw i8, ptr %0, i64 1096
  %19 = load i32, ptr %18, align 8
  store i32 %19, ptr %17, align 8
  %20 = getelementptr inbounds nuw i8, ptr %4, i64 60
  call void @llvm.memset.p0.i64(ptr noundef nonnull align 4 dereferenceable(20) %20, i8 0, i64 20, i1 false)
  %21 = load i16, ptr getelementptr inbounds nuw (i8, ptr @slurm_conf, i64 842), align 2
  %22 = and i16 %21, 1
  %.not = icmp eq i16 %22, 0
  br i1 %.not, label %23, label %58

23:                                               ; preds = %2
  %24 = load i16, ptr @accounting_enforce, align 2
  %25 = and i16 %24, 2
  %.not22 = icmp eq i16 %25, 0
  br i1 %.not22, label %58, label %26

26:                                               ; preds = %23
  %27 = getelementptr inbounds nuw i8, ptr %0, i64 720
  %28 = load i32, ptr %27, align 8
  %.not23 = icmp eq i32 %28, 0
  br i1 %.not23, label %38, label %29

29:                                               ; preds = %26
  %30 = getelementptr inbounds nuw i8, ptr %0, i64 112
  %31 = load i64, ptr %30, align 8
  %32 = and i64 %31, 536870912
  %.not24 = icmp eq i64 %32, 0
  br i1 %.not24, label %33, label %38

33:                                               ; preds = %29
  %.not25 = icmp eq ptr %6, null
  br i1 %.not25, label %40, label %34

34:                                               ; preds = %33
  %35 = getelementptr inbounds nuw i8, ptr %6, i64 48
  %36 = load i64, ptr %35, align 8
  %.not26 = icmp ne i64 %36, 0
  %37 = icmp sgt i64 %36, %7
  %or.cond = select i1 %.not26, i1 %37, i1 false
  br i1 %or.cond, label %.thread, label %40

38:                                               ; preds = %29, %26
  %.not28 = icmp eq ptr %6, null
  br i1 %.not28, label %58, label %.thread

.thread:                                          ; preds = %34, %38
  %39 = getelementptr inbounds nuw i8, ptr %6, i64 16
  store i64 0, ptr %39, align 8
  br label %58

40:                                               ; preds = %34, %33
  %41 = getelementptr inbounds nuw i8, ptr %0, i64 448
  %42 = load i32, ptr %41, align 8
  %43 = and i32 %42, 255
  %44 = icmp eq i32 %43, 0
  br i1 %44, label %45, label %58

45:                                               ; preds = %40
  br i1 %1, label %47, label %46

46:                                               ; preds = %45
  call void @assoc_mgr_lock(ptr noundef nonnull %3) #15
  %.pre = load ptr, ptr %9, align 8
  br label %47

47:                                               ; preds = %46, %45
  %48 = phi ptr [ %.pre, %46 ], [ %10, %45 ]
  %.not27 = icmp eq ptr %48, null
  br i1 %.not27, label %49, label %53

49:                                               ; preds = %47
  %50 = call i32 @get_log_level() #15
  %51 = icmp sgt i32 %50, 4
  br i1 %51, label %52, label %56

52:                                               ; preds = %49
  call void (i32, ptr, ...) @log_var(i32 noundef 5, ptr noundef nonnull @.str.28, ptr noundef nonnull @__func__.acct_policy_add_accrue_time, ptr noundef nonnull %0) #15
  br label %56

53:                                               ; preds = %47
  %54 = getelementptr inbounds nuw i8, ptr %48, i64 8
  %55 = load ptr, ptr %54, align 8
  store ptr %55, ptr %4, align 8
  call fastcc void @_set_highest_prio_qos_ptr(ptr noundef nonnull %0)
  call fastcc void @_handle_add_accrue(ptr noundef %4)
  br label %56

56:                                               ; preds = %49, %52, %53
  br i1 %1, label %58, label %57

57:                                               ; preds = %56
  call void @assoc_mgr_unlock(ptr noundef nonnull %3) #15
  br label %58

58:                                               ; preds = %56, %57, %40, %38, %.thread, %23, %2
  call void @llvm.lifetime.end.p0(i64 80, ptr nonnull %4) #15
  call void @llvm.lifetime.end.p0(i64 28, ptr nonnull %3) #15
  ret void
}